
build/demo.elf:     file format elf32-littleriscv
build/demo.elf
architecture: riscv:rv32, flags 0x00000112:
EXEC_P, HAS_SYMS, D_PAGED
start address 0x80000000

Program Header:
0x70000003 off    0x000066fa vaddr 0x00000000 paddr 0x00000000 align 2**0
         filesz 0x00000029 memsz 0x00000000 flags r--
    LOAD off    0x00001000 vaddr 0x80000000 paddr 0x80000000 align 2**12
         filesz 0x00000488 memsz 0x00000690 flags rwx
   STACK off    0x00000000 vaddr 0x00000000 paddr 0x00000000 align 2**4
         filesz 0x00000000 memsz 0x00000000 flags rw-

Sections:
Idx Name              Size      VMA       LMA       File off  Algn  Flags
  0 .vector           00000130  80000000  80000000  00001000  2**2  CONTENTS, ALLOC, LOAD, READONLY, CODE
  1 .memory           00000358  80000130  80000130  00001130  2**2  CONTENTS, ALLOC, LOAD, READONLY, CODE
  2 .ctors            00000000  80000488  80000488  00001488  2**0  CONTENTS
  3 .data             00000000  80000488  80000488  00001488  2**0  CONTENTS, ALLOC, LOAD, DATA
  4 .bss              00000000  80000488  80000488  00001488  2**0  ALLOC
  5 .noinit           00000000  80000488  80000488  00000000  2**0  ALLOC
  6 ._user_heap       00000000  80000488  80000488  00001488  2**0  CONTENTS
  7 ._stack           00000208  80000488  80000488  00001488  2**0  ALLOC
  8 .debug_info       0000041c  00000000  00000000  00001488  2**0  CONTENTS, READONLY, DEBUGGING, OCTETS
  9 .debug_abbrev     00000176  00000000  00000000  000018a4  2**0  CONTENTS, READONLY, DEBUGGING, OCTETS
 10 .debug_aranges    00000040  00000000  00000000  00001a20  2**3  CONTENTS, READONLY, DEBUGGING, OCTETS
 11 .debug_macro      00000caf  00000000  00000000  00001a60  2**0  CONTENTS, READONLY, DEBUGGING, OCTETS
 12 .debug_line       00000801  00000000  00000000  0000270f  2**0  CONTENTS, READONLY, DEBUGGING, OCTETS
 13 .debug_str        000037c5  00000000  00000000  00002f10  2**0  CONTENTS, READONLY, DEBUGGING, OCTETS
 14 .comment          00000025  00000000  00000000  000066d5  2**0  CONTENTS, READONLY
 15 .riscv.attributes 00000029  00000000  00000000  000066fa  2**0  CONTENTS, READONLY
 16 .debug_frame      00000150  00000000  00000000  00006724  2**2  CONTENTS, READONLY, DEBUGGING, OCTETS
SYMBOL TABLE:
80000000 l    d  .vector	00000000 .vector
80000130 l    d  .memory	00000000 .memory
80000488 l    d  .ctors	00000000 .ctors
80000488 l    d  .data	00000000 .data
80000488 l    d  .bss	00000000 .bss
80000488 l    d  .noinit	00000000 .noinit
80000488 l    d  ._user_heap	00000000 ._user_heap
80000488 l    d  ._stack	00000000 ._stack
00000000 l    d  .debug_info	00000000 .debug_info
00000000 l    d  .debug_abbrev	00000000 .debug_abbrev
00000000 l    d  .debug_aranges	00000000 .debug_aranges
00000000 l    d  .debug_macro	00000000 .debug_macro
00000000 l    d  .debug_line	00000000 .debug_line
00000000 l    d  .debug_str	00000000 .debug_str
00000000 l    d  .comment	00000000 .comment
00000000 l    d  .riscv.attributes	00000000 .riscv.attributes
00000000 l    d  .debug_frame	00000000 .debug_frame
00000000 l    df *ABS*	00000000 crt.o
800000b0 l       .vector	00000000 crtInit
800000bc l       .vector	00000000 bss_init
800000cc l       .vector	00000000 bss_loop
800000dc l       .vector	00000000 bss_done
800000dc l       .vector	00000000 ctors_init
800000e8 l       .vector	00000000 ctors_loop
8000010c l       .vector	00000000 ctors_done
8000012c l       .vector	00000000 infinitLoop
00000000 l    df *ABS*	00000000 main.c
80000130 l     F .memory	00000030 timer_init
80000160 l     F .memory	00000020 prescaler_init
80000180 l     F .memory	00000034 interruptCtrl_init
800001b4 l     F .memory	00000030 uart_writeAvailability
800001e4 l     F .memory	0000002c uart_readOccupancy
80000210 l     F .memory	0000004c uart_write
8000025c l     F .memory	00000068 uart_applyConfig
80000c88 g       .data	00000000 __global_pointer$
80000488 g       .ctors	00000000 _ctors_end
80000488 g       .bss	00000000 _bss_start
80000488 g       .bss	00000000 _bss_end
80000488 g       .memory	00000000 end
80000408 g     F .memory	00000080 irqCallback
80000488 g       .ctors	00000000 _ctors_start
00000200 g       *ABS*	00000000 _stack_size
800002c4 g     F .memory	00000144 main
80000020 g       .vector	00000000 trap_entry
80000000 g       .vector	00000000 crtStart
80000690 g       ._stack	00000000 _stack_start
00000000 g       *ABS*	00000000 _heap_size



Disassembly of section .vector:

80000000 <crtStart>:
crtStart():
/home/drom/work/github/SpinalHDL/VexRiscvSocSoftware/projects/murax/demo/src/crt.S:6
.global crtStart
.global main
.global irqCallback

crtStart:
  j crtInit
80000000:	0b00006f          	j	800000b0 <crtInit>
/home/drom/work/github/SpinalHDL/VexRiscvSocSoftware/projects/murax/demo/src/crt.S:7
  nop
80000004:	00000013          	nop
/home/drom/work/github/SpinalHDL/VexRiscvSocSoftware/projects/murax/demo/src/crt.S:8
  nop
80000008:	00000013          	nop
/home/drom/work/github/SpinalHDL/VexRiscvSocSoftware/projects/murax/demo/src/crt.S:9
  nop
8000000c:	00000013          	nop
/home/drom/work/github/SpinalHDL/VexRiscvSocSoftware/projects/murax/demo/src/crt.S:10
  nop
80000010:	00000013          	nop
/home/drom/work/github/SpinalHDL/VexRiscvSocSoftware/projects/murax/demo/src/crt.S:11
  nop
80000014:	00000013          	nop
/home/drom/work/github/SpinalHDL/VexRiscvSocSoftware/projects/murax/demo/src/crt.S:12
  nop
80000018:	00000013          	nop
/home/drom/work/github/SpinalHDL/VexRiscvSocSoftware/projects/murax/demo/src/crt.S:13
  nop
8000001c:	00000013          	nop

80000020 <trap_entry>:
trap_entry():
/home/drom/work/github/SpinalHDL/VexRiscvSocSoftware/projects/murax/demo/src/crt.S:17

.global  trap_entry
trap_entry:
  sw x1,  - 1*4(sp)
80000020:	fe112e23          	sw	ra,-4(sp)
/home/drom/work/github/SpinalHDL/VexRiscvSocSoftware/projects/murax/demo/src/crt.S:18
  sw x5,  - 2*4(sp)
80000024:	fe512c23          	sw	t0,-8(sp)
/home/drom/work/github/SpinalHDL/VexRiscvSocSoftware/projects/murax/demo/src/crt.S:19
  sw x6,  - 3*4(sp)
80000028:	fe612a23          	sw	t1,-12(sp)
/home/drom/work/github/SpinalHDL/VexRiscvSocSoftware/projects/murax/demo/src/crt.S:20
  sw x7,  - 4*4(sp)
8000002c:	fe712823          	sw	t2,-16(sp)
/home/drom/work/github/SpinalHDL/VexRiscvSocSoftware/projects/murax/demo/src/crt.S:21
  sw x10, - 5*4(sp)
80000030:	fea12623          	sw	a0,-20(sp)
/home/drom/work/github/SpinalHDL/VexRiscvSocSoftware/projects/murax/demo/src/crt.S:22
  sw x11, - 6*4(sp)
80000034:	feb12423          	sw	a1,-24(sp)
/home/drom/work/github/SpinalHDL/VexRiscvSocSoftware/projects/murax/demo/src/crt.S:23
  sw x12, - 7*4(sp)
80000038:	fec12223          	sw	a2,-28(sp)
/home/drom/work/github/SpinalHDL/VexRiscvSocSoftware/projects/murax/demo/src/crt.S:24
  sw x13, - 8*4(sp)
8000003c:	fed12023          	sw	a3,-32(sp)
/home/drom/work/github/SpinalHDL/VexRiscvSocSoftware/projects/murax/demo/src/crt.S:25
  sw x14, - 9*4(sp)
80000040:	fce12e23          	sw	a4,-36(sp)
/home/drom/work/github/SpinalHDL/VexRiscvSocSoftware/projects/murax/demo/src/crt.S:26
  sw x15, -10*4(sp)
80000044:	fcf12c23          	sw	a5,-40(sp)
/home/drom/work/github/SpinalHDL/VexRiscvSocSoftware/projects/murax/demo/src/crt.S:27
  sw x16, -11*4(sp)
80000048:	fd012a23          	sw	a6,-44(sp)
/home/drom/work/github/SpinalHDL/VexRiscvSocSoftware/projects/murax/demo/src/crt.S:28
  sw x17, -12*4(sp)
8000004c:	fd112823          	sw	a7,-48(sp)
/home/drom/work/github/SpinalHDL/VexRiscvSocSoftware/projects/murax/demo/src/crt.S:29
  sw x28, -13*4(sp)
80000050:	fdc12623          	sw	t3,-52(sp)
/home/drom/work/github/SpinalHDL/VexRiscvSocSoftware/projects/murax/demo/src/crt.S:30
  sw x29, -14*4(sp)
80000054:	fdd12423          	sw	t4,-56(sp)
/home/drom/work/github/SpinalHDL/VexRiscvSocSoftware/projects/murax/demo/src/crt.S:31
  sw x30, -15*4(sp)
80000058:	fde12223          	sw	t5,-60(sp)
/home/drom/work/github/SpinalHDL/VexRiscvSocSoftware/projects/murax/demo/src/crt.S:32
  sw x31, -16*4(sp)
8000005c:	fdf12023          	sw	t6,-64(sp)
/home/drom/work/github/SpinalHDL/VexRiscvSocSoftware/projects/murax/demo/src/crt.S:33
  addi sp,sp,-16*4
80000060:	fc010113          	add	sp,sp,-64
/home/drom/work/github/SpinalHDL/VexRiscvSocSoftware/projects/murax/demo/src/crt.S:34
  call irqCallback
80000064:	3a4000ef          	jal	80000408 <irqCallback>
/home/drom/work/github/SpinalHDL/VexRiscvSocSoftware/projects/murax/demo/src/crt.S:35
  lw x1 , 15*4(sp)
80000068:	03c12083          	lw	ra,60(sp)
/home/drom/work/github/SpinalHDL/VexRiscvSocSoftware/projects/murax/demo/src/crt.S:36
  lw x5,  14*4(sp)
8000006c:	03812283          	lw	t0,56(sp)
/home/drom/work/github/SpinalHDL/VexRiscvSocSoftware/projects/murax/demo/src/crt.S:37
  lw x6,  13*4(sp)
80000070:	03412303          	lw	t1,52(sp)
/home/drom/work/github/SpinalHDL/VexRiscvSocSoftware/projects/murax/demo/src/crt.S:38
  lw x7,  12*4(sp)
80000074:	03012383          	lw	t2,48(sp)
/home/drom/work/github/SpinalHDL/VexRiscvSocSoftware/projects/murax/demo/src/crt.S:39
  lw x10, 11*4(sp)
80000078:	02c12503          	lw	a0,44(sp)
/home/drom/work/github/SpinalHDL/VexRiscvSocSoftware/projects/murax/demo/src/crt.S:40
  lw x11, 10*4(sp)
8000007c:	02812583          	lw	a1,40(sp)
/home/drom/work/github/SpinalHDL/VexRiscvSocSoftware/projects/murax/demo/src/crt.S:41
  lw x12,  9*4(sp)
80000080:	02412603          	lw	a2,36(sp)
/home/drom/work/github/SpinalHDL/VexRiscvSocSoftware/projects/murax/demo/src/crt.S:42
  lw x13,  8*4(sp)
80000084:	02012683          	lw	a3,32(sp)
/home/drom/work/github/SpinalHDL/VexRiscvSocSoftware/projects/murax/demo/src/crt.S:43
  lw x14,  7*4(sp)
80000088:	01c12703          	lw	a4,28(sp)
/home/drom/work/github/SpinalHDL/VexRiscvSocSoftware/projects/murax/demo/src/crt.S:44
  lw x15,  6*4(sp)
8000008c:	01812783          	lw	a5,24(sp)
/home/drom/work/github/SpinalHDL/VexRiscvSocSoftware/projects/murax/demo/src/crt.S:45
  lw x16,  5*4(sp)
80000090:	01412803          	lw	a6,20(sp)
/home/drom/work/github/SpinalHDL/VexRiscvSocSoftware/projects/murax/demo/src/crt.S:46
  lw x17,  4*4(sp)
80000094:	01012883          	lw	a7,16(sp)
/home/drom/work/github/SpinalHDL/VexRiscvSocSoftware/projects/murax/demo/src/crt.S:47
  lw x28,  3*4(sp)
80000098:	00c12e03          	lw	t3,12(sp)
/home/drom/work/github/SpinalHDL/VexRiscvSocSoftware/projects/murax/demo/src/crt.S:48
  lw x29,  2*4(sp)
8000009c:	00812e83          	lw	t4,8(sp)
/home/drom/work/github/SpinalHDL/VexRiscvSocSoftware/projects/murax/demo/src/crt.S:49
  lw x30,  1*4(sp)
800000a0:	00412f03          	lw	t5,4(sp)
/home/drom/work/github/SpinalHDL/VexRiscvSocSoftware/projects/murax/demo/src/crt.S:50
  lw x31,  0*4(sp)
800000a4:	00012f83          	lw	t6,0(sp)
/home/drom/work/github/SpinalHDL/VexRiscvSocSoftware/projects/murax/demo/src/crt.S:51
  addi sp,sp,16*4
800000a8:	04010113          	add	sp,sp,64
/home/drom/work/github/SpinalHDL/VexRiscvSocSoftware/projects/murax/demo/src/crt.S:52
  mret
800000ac:	30200073          	mret

800000b0 <crtInit>:
crtInit():
/home/drom/work/github/SpinalHDL/VexRiscvSocSoftware/projects/murax/demo/src/crt.S:59


crtInit:
  .option push
  .option norelax
  la gp, __global_pointer$
800000b0:	00001197          	auipc	gp,0x1
800000b4:	bd818193          	add	gp,gp,-1064 # 80000c88 <__global_pointer$>
/home/drom/work/github/SpinalHDL/VexRiscvSocSoftware/projects/murax/demo/src/crt.S:61
  .option pop
  la sp, _stack_start
800000b8:	a0818113          	add	sp,gp,-1528 # 80000690 <_stack_start>

800000bc <bss_init>:
bss_init():
/home/drom/work/github/SpinalHDL/VexRiscvSocSoftware/projects/murax/demo/src/crt.S:64

bss_init:
  la a0, _bss_start
800000bc:	00000517          	auipc	a0,0x0
800000c0:	3cc50513          	add	a0,a0,972 # 80000488 <_bss_end>
/home/drom/work/github/SpinalHDL/VexRiscvSocSoftware/projects/murax/demo/src/crt.S:65
  la a1, _bss_end
800000c4:	00000597          	auipc	a1,0x0
800000c8:	3c458593          	add	a1,a1,964 # 80000488 <_bss_end>

800000cc <bss_loop>:
bss_loop():
/home/drom/work/github/SpinalHDL/VexRiscvSocSoftware/projects/murax/demo/src/crt.S:67
bss_loop:
  beq a0,a1,bss_done
800000cc:	00b50863          	beq	a0,a1,800000dc <bss_done>
/home/drom/work/github/SpinalHDL/VexRiscvSocSoftware/projects/murax/demo/src/crt.S:68
  sw zero,0(a0)
800000d0:	00052023          	sw	zero,0(a0)
/home/drom/work/github/SpinalHDL/VexRiscvSocSoftware/projects/murax/demo/src/crt.S:69
  add a0,a0,4
800000d4:	00450513          	add	a0,a0,4
/home/drom/work/github/SpinalHDL/VexRiscvSocSoftware/projects/murax/demo/src/crt.S:70
  j bss_loop
800000d8:	ff5ff06f          	j	800000cc <bss_loop>

800000dc <bss_done>:
bss_done():
/home/drom/work/github/SpinalHDL/VexRiscvSocSoftware/projects/murax/demo/src/crt.S:74
bss_done:

ctors_init:
  la a0, _ctors_start
800000dc:	00000517          	auipc	a0,0x0
800000e0:	3ac50513          	add	a0,a0,940 # 80000488 <_bss_end>
/home/drom/work/github/SpinalHDL/VexRiscvSocSoftware/projects/murax/demo/src/crt.S:75
  addi sp,sp,-4
800000e4:	ffc10113          	add	sp,sp,-4

800000e8 <ctors_loop>:
ctors_loop():
/home/drom/work/github/SpinalHDL/VexRiscvSocSoftware/projects/murax/demo/src/crt.S:77
ctors_loop:
  la a1, _ctors_end
800000e8:	00000597          	auipc	a1,0x0
800000ec:	3a058593          	add	a1,a1,928 # 80000488 <_bss_end>
/home/drom/work/github/SpinalHDL/VexRiscvSocSoftware/projects/murax/demo/src/crt.S:78
  beq a0,a1,ctors_done
800000f0:	00b50e63          	beq	a0,a1,8000010c <ctors_done>
/home/drom/work/github/SpinalHDL/VexRiscvSocSoftware/projects/murax/demo/src/crt.S:79
  lw a3,0(a0)
800000f4:	00052683          	lw	a3,0(a0)
/home/drom/work/github/SpinalHDL/VexRiscvSocSoftware/projects/murax/demo/src/crt.S:80
  add a0,a0,4
800000f8:	00450513          	add	a0,a0,4
/home/drom/work/github/SpinalHDL/VexRiscvSocSoftware/projects/murax/demo/src/crt.S:81
  sw a0,0(sp)
800000fc:	00a12023          	sw	a0,0(sp)
/home/drom/work/github/SpinalHDL/VexRiscvSocSoftware/projects/murax/demo/src/crt.S:82
  jalr  a3
80000100:	000680e7          	jalr	a3
/home/drom/work/github/SpinalHDL/VexRiscvSocSoftware/projects/murax/demo/src/crt.S:83
  lw a0,0(sp)
80000104:	00012503          	lw	a0,0(sp)
/home/drom/work/github/SpinalHDL/VexRiscvSocSoftware/projects/murax/demo/src/crt.S:84
  j ctors_loop
80000108:	fe1ff06f          	j	800000e8 <ctors_loop>

8000010c <ctors_done>:
ctors_done():
/home/drom/work/github/SpinalHDL/VexRiscvSocSoftware/projects/murax/demo/src/crt.S:86
ctors_done:
  addi sp,sp,4
8000010c:	00410113          	add	sp,sp,4
/home/drom/work/github/SpinalHDL/VexRiscvSocSoftware/projects/murax/demo/src/crt.S:89


  li a0, 0x880     //880 enable timer + external interrupts
80000110:	00001537          	lui	a0,0x1
80000114:	88050513          	add	a0,a0,-1920 # 880 <_stack_size+0x680>
/home/drom/work/github/SpinalHDL/VexRiscvSocSoftware/projects/murax/demo/src/crt.S:90
  csrw mie,a0
80000118:	30451073          	csrw	mie,a0
/home/drom/work/github/SpinalHDL/VexRiscvSocSoftware/projects/murax/demo/src/crt.S:91
  li a0, 0x1808     //1808 enable interrupts
8000011c:	00002537          	lui	a0,0x2
80000120:	80850513          	add	a0,a0,-2040 # 1808 <_stack_size+0x1608>
/home/drom/work/github/SpinalHDL/VexRiscvSocSoftware/projects/murax/demo/src/crt.S:92
  csrw mstatus,a0
80000124:	30051073          	csrw	mstatus,a0
/home/drom/work/github/SpinalHDL/VexRiscvSocSoftware/projects/murax/demo/src/crt.S:94

  call main
80000128:	19c000ef          	jal	800002c4 <main>

8000012c <infinitLoop>:
infinitLoop():
/home/drom/work/github/SpinalHDL/VexRiscvSocSoftware/projects/murax/demo/src/crt.S:96
infinitLoop:
  j infinitLoop
8000012c:	0000006f          	j	8000012c <infinitLoop>

Disassembly of section .memory:

80000130 <timer_init>:
timer_init():
/home/drom/work/github/SpinalHDL/VexRiscvSocSoftware/projects/murax/demo/../../../libs/timer.h:14
  volatile uint32_t CLEARS_TICKS;
  volatile uint32_t LIMIT;
  volatile uint32_t VALUE;
} Timer_Reg;

static void timer_init(Timer_Reg *reg){
80000130:	fe010113          	add	sp,sp,-32
80000134:	00812e23          	sw	s0,28(sp)
80000138:	02010413          	add	s0,sp,32
8000013c:	fea42623          	sw	a0,-20(s0)
/home/drom/work/github/SpinalHDL/VexRiscvSocSoftware/projects/murax/demo/../../../libs/timer.h:15
	reg->CLEARS_TICKS  = 0;
80000140:	fec42783          	lw	a5,-20(s0)
80000144:	0007a023          	sw	zero,0(a5)
/home/drom/work/github/SpinalHDL/VexRiscvSocSoftware/projects/murax/demo/../../../libs/timer.h:16
	reg->VALUE = 0;
80000148:	fec42783          	lw	a5,-20(s0)
8000014c:	0007a423          	sw	zero,8(a5)
/home/drom/work/github/SpinalHDL/VexRiscvSocSoftware/projects/murax/demo/../../../libs/timer.h:17
}
80000150:	00000013          	nop
80000154:	01c12403          	lw	s0,28(sp)
80000158:	02010113          	add	sp,sp,32
8000015c:	00008067          	ret

80000160 <prescaler_init>:
prescaler_init():
/home/drom/work/github/SpinalHDL/VexRiscvSocSoftware/projects/murax/demo/../../../libs/prescaler.h:12
typedef struct
{
  volatile uint32_t LIMIT;
} Prescaler_Reg;

static void prescaler_init(Prescaler_Reg* reg){
80000160:	fe010113          	add	sp,sp,-32
80000164:	00812e23          	sw	s0,28(sp)
80000168:	02010413          	add	s0,sp,32
8000016c:	fea42623          	sw	a0,-20(s0)
/home/drom/work/github/SpinalHDL/VexRiscvSocSoftware/projects/murax/demo/../../../libs/prescaler.h:14

}
80000170:	00000013          	nop
80000174:	01c12403          	lw	s0,28(sp)
80000178:	02010113          	add	sp,sp,32
8000017c:	00008067          	ret

80000180 <interruptCtrl_init>:
interruptCtrl_init():
/home/drom/work/github/SpinalHDL/VexRiscvSocSoftware/projects/murax/demo/../../../libs/interrupt.h:12
{
  volatile uint32_t PENDINGS;
  volatile uint32_t MASKS;
} InterruptCtrl_Reg;

static void interruptCtrl_init(InterruptCtrl_Reg* reg){
80000180:	fe010113          	add	sp,sp,-32
80000184:	00812e23          	sw	s0,28(sp)
80000188:	02010413          	add	s0,sp,32
8000018c:	fea42623          	sw	a0,-20(s0)
/home/drom/work/github/SpinalHDL/VexRiscvSocSoftware/projects/murax/demo/../../../libs/interrupt.h:13
	reg->MASKS = 0;
80000190:	fec42783          	lw	a5,-20(s0)
80000194:	0007a223          	sw	zero,4(a5)
/home/drom/work/github/SpinalHDL/VexRiscvSocSoftware/projects/murax/demo/../../../libs/interrupt.h:14
	reg->PENDINGS = 0xFFFFFFFF;
80000198:	fec42783          	lw	a5,-20(s0)
8000019c:	fff00713          	li	a4,-1
800001a0:	00e7a023          	sw	a4,0(a5)
/home/drom/work/github/SpinalHDL/VexRiscvSocSoftware/projects/murax/demo/../../../libs/interrupt.h:15
}
800001a4:	00000013          	nop
800001a8:	01c12403          	lw	s0,28(sp)
800001ac:	02010113          	add	sp,sp,32
800001b0:	00008067          	ret

800001b4 <uart_writeAvailability>:
uart_writeAvailability():
/home/drom/work/github/SpinalHDL/VexRiscvSocSoftware/projects/murax/demo/../../../libs/uart.h:23
	enum UartParity parity;
	enum UartStop stop;
	uint32_t clockDivider;
} Uart_Config;

static uint32_t uart_writeAvailability(Uart_Reg *reg){
800001b4:	fe010113          	add	sp,sp,-32
800001b8:	00812e23          	sw	s0,28(sp)
800001bc:	02010413          	add	s0,sp,32
800001c0:	fea42623          	sw	a0,-20(s0)
/home/drom/work/github/SpinalHDL/VexRiscvSocSoftware/projects/murax/demo/../../../libs/uart.h:24
	return (reg->STATUS >> 16) & 0xFF;
800001c4:	fec42783          	lw	a5,-20(s0)
800001c8:	0047a783          	lw	a5,4(a5)
800001cc:	0107d793          	srl	a5,a5,0x10
800001d0:	0ff7f793          	zext.b	a5,a5
/home/drom/work/github/SpinalHDL/VexRiscvSocSoftware/projects/murax/demo/../../../libs/uart.h:25
}
800001d4:	00078513          	mv	a0,a5
800001d8:	01c12403          	lw	s0,28(sp)
800001dc:	02010113          	add	sp,sp,32
800001e0:	00008067          	ret

800001e4 <uart_readOccupancy>:
uart_readOccupancy():
/home/drom/work/github/SpinalHDL/VexRiscvSocSoftware/projects/murax/demo/../../../libs/uart.h:26
static uint32_t uart_readOccupancy(Uart_Reg *reg){
800001e4:	fe010113          	add	sp,sp,-32
800001e8:	00812e23          	sw	s0,28(sp)
800001ec:	02010413          	add	s0,sp,32
800001f0:	fea42623          	sw	a0,-20(s0)
/home/drom/work/github/SpinalHDL/VexRiscvSocSoftware/projects/murax/demo/../../../libs/uart.h:27
	return reg->STATUS >> 24;
800001f4:	fec42783          	lw	a5,-20(s0)
800001f8:	0047a783          	lw	a5,4(a5)
800001fc:	0187d793          	srl	a5,a5,0x18
/home/drom/work/github/SpinalHDL/VexRiscvSocSoftware/projects/murax/demo/../../../libs/uart.h:28
}
80000200:	00078513          	mv	a0,a5
80000204:	01c12403          	lw	s0,28(sp)
80000208:	02010113          	add	sp,sp,32
8000020c:	00008067          	ret

80000210 <uart_write>:
uart_write():
/home/drom/work/github/SpinalHDL/VexRiscvSocSoftware/projects/murax/demo/../../../libs/uart.h:30

static void uart_write(Uart_Reg *reg, uint32_t data){
80000210:	fe010113          	add	sp,sp,-32
80000214:	00112e23          	sw	ra,28(sp)
80000218:	00812c23          	sw	s0,24(sp)
8000021c:	02010413          	add	s0,sp,32
80000220:	fea42623          	sw	a0,-20(s0)
80000224:	feb42423          	sw	a1,-24(s0)
/home/drom/work/github/SpinalHDL/VexRiscvSocSoftware/projects/murax/demo/../../../libs/uart.h:31
	while(uart_writeAvailability(reg) == 0);
80000228:	00000013          	nop
/home/drom/work/github/SpinalHDL/VexRiscvSocSoftware/projects/murax/demo/../../../libs/uart.h:31 (discriminator 1)
8000022c:	fec42503          	lw	a0,-20(s0)
80000230:	f85ff0ef          	jal	800001b4 <uart_writeAvailability>
80000234:	00050793          	mv	a5,a0
80000238:	fe078ae3          	beqz	a5,8000022c <uart_write+0x1c>
/home/drom/work/github/SpinalHDL/VexRiscvSocSoftware/projects/murax/demo/../../../libs/uart.h:32
	reg->DATA = data;
8000023c:	fec42783          	lw	a5,-20(s0)
80000240:	fe842703          	lw	a4,-24(s0)
80000244:	00e7a023          	sw	a4,0(a5)
/home/drom/work/github/SpinalHDL/VexRiscvSocSoftware/projects/murax/demo/../../../libs/uart.h:33
}
80000248:	00000013          	nop
8000024c:	01c12083          	lw	ra,28(sp)
80000250:	01812403          	lw	s0,24(sp)
80000254:	02010113          	add	sp,sp,32
80000258:	00008067          	ret

8000025c <uart_applyConfig>:
uart_applyConfig():
/home/drom/work/github/SpinalHDL/VexRiscvSocSoftware/projects/murax/demo/../../../libs/uart.h:35

static void uart_applyConfig(Uart_Reg *reg, Uart_Config *config){
8000025c:	fe010113          	add	sp,sp,-32
80000260:	00812e23          	sw	s0,28(sp)
80000264:	02010413          	add	s0,sp,32
80000268:	fea42623          	sw	a0,-20(s0)
8000026c:	feb42423          	sw	a1,-24(s0)
/home/drom/work/github/SpinalHDL/VexRiscvSocSoftware/projects/murax/demo/../../../libs/uart.h:36
	reg->CLOCK_DIVIDER = config->clockDivider;
80000270:	fe842783          	lw	a5,-24(s0)
80000274:	00c7a703          	lw	a4,12(a5)
80000278:	fec42783          	lw	a5,-20(s0)
8000027c:	00e7a423          	sw	a4,8(a5)
/home/drom/work/github/SpinalHDL/VexRiscvSocSoftware/projects/murax/demo/../../../libs/uart.h:37
	reg->FRAME_CONFIG = ((config->dataLength-1) << 0) | (config->parity << 8) | (config->stop << 16);
80000280:	fe842783          	lw	a5,-24(s0)
80000284:	0007a783          	lw	a5,0(a5)
80000288:	fff78713          	add	a4,a5,-1
8000028c:	fe842783          	lw	a5,-24(s0)
80000290:	0047a783          	lw	a5,4(a5)
80000294:	00879793          	sll	a5,a5,0x8
80000298:	00f76733          	or	a4,a4,a5
8000029c:	fe842783          	lw	a5,-24(s0)
800002a0:	0087a783          	lw	a5,8(a5)
800002a4:	01079793          	sll	a5,a5,0x10
800002a8:	00f76733          	or	a4,a4,a5
800002ac:	fec42783          	lw	a5,-20(s0)
800002b0:	00e7a623          	sw	a4,12(a5)
/home/drom/work/github/SpinalHDL/VexRiscvSocSoftware/projects/murax/demo/../../../libs/uart.h:38
}
800002b4:	00000013          	nop
800002b8:	01c12403          	lw	s0,28(sp)
800002bc:	02010113          	add	sp,sp,32
800002c0:	00008067          	ret

800002c4 <main>:
main():
/home/drom/work/github/SpinalHDL/VexRiscvSocSoftware/projects/murax/demo/src/main.c:6
#include <stdint.h>

#include <murax.h>


void main() {
800002c4:	fd010113          	add	sp,sp,-48
800002c8:	02112623          	sw	ra,44(sp)
800002cc:	02812423          	sw	s0,40(sp)
800002d0:	03010413          	add	s0,sp,48
/home/drom/work/github/SpinalHDL/VexRiscvSocSoftware/projects/murax/demo/src/main.c:7
	volatile uint32_t a = 1, b = 2, c = 3;
800002d4:	00100793          	li	a5,1
800002d8:	fef42223          	sw	a5,-28(s0)
800002dc:	00200793          	li	a5,2
800002e0:	fef42023          	sw	a5,-32(s0)
800002e4:	00300793          	li	a5,3
800002e8:	fcf42e23          	sw	a5,-36(s0)
/home/drom/work/github/SpinalHDL/VexRiscvSocSoftware/projects/murax/demo/src/main.c:8
	uint32_t result = 0;
800002ec:	fe042623          	sw	zero,-20(s0)
/home/drom/work/github/SpinalHDL/VexRiscvSocSoftware/projects/murax/demo/src/main.c:10

	interruptCtrl_init(TIMER_INTERRUPT);
800002f0:	f00207b7          	lui	a5,0xf0020
800002f4:	01078513          	add	a0,a5,16 # f0020010 <__global_pointer$+0x7001f388>
800002f8:	e89ff0ef          	jal	80000180 <interruptCtrl_init>
/home/drom/work/github/SpinalHDL/VexRiscvSocSoftware/projects/murax/demo/src/main.c:11
	prescaler_init(TIMER_PRESCALER);
800002fc:	f0020537          	lui	a0,0xf0020
80000300:	e61ff0ef          	jal	80000160 <prescaler_init>
/home/drom/work/github/SpinalHDL/VexRiscvSocSoftware/projects/murax/demo/src/main.c:12
	timer_init(TIMER_A);
80000304:	f00207b7          	lui	a5,0xf0020
80000308:	04078513          	add	a0,a5,64 # f0020040 <__global_pointer$+0x7001f3b8>
8000030c:	e25ff0ef          	jal	80000130 <timer_init>
/home/drom/work/github/SpinalHDL/VexRiscvSocSoftware/projects/murax/demo/src/main.c:14

	TIMER_PRESCALER->LIMIT = 12000-1; //1 ms rate
80000310:	f00207b7          	lui	a5,0xf0020
80000314:	00003737          	lui	a4,0x3
80000318:	edf70713          	add	a4,a4,-289 # 2edf <_stack_size+0x2cdf>
8000031c:	00e7a023          	sw	a4,0(a5) # f0020000 <__global_pointer$+0x7001f378>
/home/drom/work/github/SpinalHDL/VexRiscvSocSoftware/projects/murax/demo/src/main.c:16

	TIMER_A->LIMIT = 1000-1;  //1 second rate
80000320:	f00207b7          	lui	a5,0xf0020
80000324:	04078793          	add	a5,a5,64 # f0020040 <__global_pointer$+0x7001f3b8>
80000328:	3e700713          	li	a4,999
8000032c:	00e7a223          	sw	a4,4(a5)
/home/drom/work/github/SpinalHDL/VexRiscvSocSoftware/projects/murax/demo/src/main.c:17
	TIMER_A->CLEARS_TICKS = 0x00010002;
80000330:	f00207b7          	lui	a5,0xf0020
80000334:	04078793          	add	a5,a5,64 # f0020040 <__global_pointer$+0x7001f3b8>
80000338:	00010737          	lui	a4,0x10
8000033c:	00270713          	add	a4,a4,2 # 10002 <_stack_size+0xfe02>
80000340:	00e7a023          	sw	a4,0(a5)
/home/drom/work/github/SpinalHDL/VexRiscvSocSoftware/projects/murax/demo/src/main.c:19

	TIMER_INTERRUPT->PENDINGS = 0xF;
80000344:	f00207b7          	lui	a5,0xf0020
80000348:	01078793          	add	a5,a5,16 # f0020010 <__global_pointer$+0x7001f388>
8000034c:	00f00713          	li	a4,15
80000350:	00e7a023          	sw	a4,0(a5)
/home/drom/work/github/SpinalHDL/VexRiscvSocSoftware/projects/murax/demo/src/main.c:20
	TIMER_INTERRUPT->MASKS = 0x1;
80000354:	f00207b7          	lui	a5,0xf0020
80000358:	01078793          	add	a5,a5,16 # f0020010 <__global_pointer$+0x7001f388>
8000035c:	00100713          	li	a4,1
80000360:	00e7a223          	sw	a4,4(a5)
/home/drom/work/github/SpinalHDL/VexRiscvSocSoftware/projects/murax/demo/src/main.c:22

	GPIO_A->OUTPUT_ENABLE = 0x000000FF;
80000364:	f00007b7          	lui	a5,0xf0000
80000368:	0ff00713          	li	a4,255
8000036c:	00e7a423          	sw	a4,8(a5) # f0000008 <__global_pointer$+0x6ffff380>
/home/drom/work/github/SpinalHDL/VexRiscvSocSoftware/projects/murax/demo/src/main.c:23
	GPIO_A->OUTPUT = 0x00000000;
80000370:	f00007b7          	lui	a5,0xf0000
80000374:	0007a223          	sw	zero,4(a5) # f0000004 <__global_pointer$+0x6ffff37c>
/home/drom/work/github/SpinalHDL/VexRiscvSocSoftware/projects/murax/demo/src/main.c:25

	UART->STATUS = 2; //Enable RX interrupts
80000378:	f00107b7          	lui	a5,0xf0010
8000037c:	00200713          	li	a4,2
80000380:	00e7a223          	sw	a4,4(a5) # f0010004 <__global_pointer$+0x7000f37c>
/home/drom/work/github/SpinalHDL/VexRiscvSocSoftware/projects/murax/demo/src/main.c:26
	UART->DATA = 'A';
80000384:	f00107b7          	lui	a5,0xf0010
80000388:	04100713          	li	a4,65
8000038c:	00e7a023          	sw	a4,0(a5) # f0010000 <__global_pointer$+0x7000f378>
/home/drom/work/github/SpinalHDL/VexRiscvSocSoftware/projects/murax/demo/src/main.c:29

	while(1){
		result += a;
80000390:	fe442783          	lw	a5,-28(s0)
80000394:	fec42703          	lw	a4,-20(s0)
80000398:	00f707b3          	add	a5,a4,a5
8000039c:	fef42623          	sw	a5,-20(s0)
/home/drom/work/github/SpinalHDL/VexRiscvSocSoftware/projects/murax/demo/src/main.c:30
		result += b + c;
800003a0:	fe042703          	lw	a4,-32(s0)
800003a4:	fdc42783          	lw	a5,-36(s0)
800003a8:	00f707b3          	add	a5,a4,a5
800003ac:	fec42703          	lw	a4,-20(s0)
800003b0:	00f707b3          	add	a5,a4,a5
800003b4:	fef42623          	sw	a5,-20(s0)
/home/drom/work/github/SpinalHDL/VexRiscvSocSoftware/projects/murax/demo/src/main.c:31
		for(uint32_t idx = 0;idx < 50000;idx++) asm volatile("");
800003b8:	fe042423          	sw	zero,-24(s0)
800003bc:	0100006f          	j	800003cc <main+0x108>
/home/drom/work/github/SpinalHDL/VexRiscvSocSoftware/projects/murax/demo/src/main.c:31 (discriminator 3)
800003c0:	fe842783          	lw	a5,-24(s0)
800003c4:	00178793          	add	a5,a5,1
800003c8:	fef42423          	sw	a5,-24(s0)
/home/drom/work/github/SpinalHDL/VexRiscvSocSoftware/projects/murax/demo/src/main.c:31 (discriminator 1)
800003cc:	fe842703          	lw	a4,-24(s0)
800003d0:	0000c7b7          	lui	a5,0xc
800003d4:	34f78793          	add	a5,a5,847 # c34f <_stack_size+0xc14f>
800003d8:	fee7f4e3          	bgeu	a5,a4,800003c0 <main+0xfc>
/home/drom/work/github/SpinalHDL/VexRiscvSocSoftware/projects/murax/demo/src/main.c:32
		GPIO_A->OUTPUT = (GPIO_A->OUTPUT & ~0x3F) | ((GPIO_A->OUTPUT + 1) & 0x3F);  //Counter on LED[5:0]
800003dc:	f00007b7          	lui	a5,0xf0000
800003e0:	0047a783          	lw	a5,4(a5) # f0000004 <__global_pointer$+0x6ffff37c>
800003e4:	fc07f693          	and	a3,a5,-64
800003e8:	f00007b7          	lui	a5,0xf0000
800003ec:	0047a783          	lw	a5,4(a5) # f0000004 <__global_pointer$+0x6ffff37c>
800003f0:	00178793          	add	a5,a5,1
800003f4:	03f7f713          	and	a4,a5,63
800003f8:	f00007b7          	lui	a5,0xf0000
800003fc:	00e6e733          	or	a4,a3,a4
80000400:	00e7a223          	sw	a4,4(a5) # f0000004 <__global_pointer$+0x6ffff37c>
/home/drom/work/github/SpinalHDL/VexRiscvSocSoftware/projects/murax/demo/src/main.c:29
		result += a;
80000404:	f8dff06f          	j	80000390 <main+0xcc>

80000408 <irqCallback>:
irqCallback():
/home/drom/work/github/SpinalHDL/VexRiscvSocSoftware/projects/murax/demo/src/main.c:36
	}
}

void irqCallback(){
80000408:	ff010113          	add	sp,sp,-16
8000040c:	00812623          	sw	s0,12(sp)
80000410:	01010413          	add	s0,sp,16
/home/drom/work/github/SpinalHDL/VexRiscvSocSoftware/projects/murax/demo/src/main.c:37
	if(TIMER_INTERRUPT->PENDINGS & 1){  //Timer A interrupt
80000414:	f00207b7          	lui	a5,0xf0020
80000418:	01078793          	add	a5,a5,16 # f0020010 <__global_pointer$+0x7001f388>
8000041c:	0007a783          	lw	a5,0(a5)
80000420:	0017f793          	and	a5,a5,1
80000424:	04078063          	beqz	a5,80000464 <irqCallback+0x5c>
/home/drom/work/github/SpinalHDL/VexRiscvSocSoftware/projects/murax/demo/src/main.c:38
		GPIO_A->OUTPUT ^= 0x80; //Toogle led 7
80000428:	f00007b7          	lui	a5,0xf0000
8000042c:	0047a703          	lw	a4,4(a5) # f0000004 <__global_pointer$+0x6ffff37c>
80000430:	f00007b7          	lui	a5,0xf0000
80000434:	08074713          	xor	a4,a4,128
80000438:	00e7a223          	sw	a4,4(a5) # f0000004 <__global_pointer$+0x6ffff37c>
/home/drom/work/github/SpinalHDL/VexRiscvSocSoftware/projects/murax/demo/src/main.c:39
		TIMER_INTERRUPT->PENDINGS = 1;
8000043c:	f00207b7          	lui	a5,0xf0020
80000440:	01078793          	add	a5,a5,16 # f0020010 <__global_pointer$+0x7001f388>
80000444:	00100713          	li	a4,1
80000448:	00e7a023          	sw	a4,0(a5)
/home/drom/work/github/SpinalHDL/VexRiscvSocSoftware/projects/murax/demo/src/main.c:41
	}
	while(UART->STATUS & (1 << 9)){ //UART RX interrupt
8000044c:	0180006f          	j	80000464 <irqCallback+0x5c>
/home/drom/work/github/SpinalHDL/VexRiscvSocSoftware/projects/murax/demo/src/main.c:42
		UART->DATA = (UART->DATA) & 0xFF;
80000450:	f00107b7          	lui	a5,0xf0010
80000454:	0007a703          	lw	a4,0(a5) # f0010000 <__global_pointer$+0x7000f378>
80000458:	f00107b7          	lui	a5,0xf0010
8000045c:	0ff77713          	zext.b	a4,a4
80000460:	00e7a023          	sw	a4,0(a5) # f0010000 <__global_pointer$+0x7000f378>
/home/drom/work/github/SpinalHDL/VexRiscvSocSoftware/projects/murax/demo/src/main.c:41
	while(UART->STATUS & (1 << 9)){ //UART RX interrupt
80000464:	f00107b7          	lui	a5,0xf0010
80000468:	0047a783          	lw	a5,4(a5) # f0010004 <__global_pointer$+0x7000f37c>
8000046c:	2007f793          	and	a5,a5,512
80000470:	fe0790e3          	bnez	a5,80000450 <irqCallback+0x48>
/home/drom/work/github/SpinalHDL/VexRiscvSocSoftware/projects/murax/demo/src/main.c:44
	}
}
80000474:	00000013          	nop
80000478:	00000013          	nop
8000047c:	00c12403          	lw	s0,12(sp)
80000480:	01010113          	add	sp,sp,16
80000484:	00008067          	ret
